; Function Attrs: nounwind uwtable
define dso_local noundef i32 @dbuf_write(ptr nocapture noundef %0, i64 noundef %1, ptr nocapture noundef readonly %2, i64 noundef %3) local_unnamed_addr #8 {
  %5 = add i64 %3, %1
  %6 = getelementptr inbounds i8, ptr %0, i64 16
  %7 = load i64, ptr %6, align 8
  %8 = icmp ult i64 %7, %5
  br i1 %8, label %9, label %._crit_edge

._crit_edge:                                      ; preds = %4
  %.pre = load ptr, ptr %0, align 8
  br label %23

9:                                                ; preds = %4
  %10 = getelementptr inbounds i8, ptr %0, i64 24
  %11 = load i32, ptr %10, align 8
  %.not.i = icmp eq i32 %11, 0
  br i1 %.not.i, label %12, label %dbuf_realloc.exit

12:                                               ; preds = %9
  %13 = mul i64 %7, 3
  %14 = lshr i64 %13, 1
  %spec.select.i = tail call i64 @llvm.umax.i64(i64 %14, i64 %5)
  %15 = getelementptr inbounds i8, ptr %0, i64 32
  %16 = load ptr, ptr %15, align 8
  %17 = getelementptr inbounds i8, ptr %0, i64 40
  %18 = load ptr, ptr %17, align 8
  %19 = load ptr, ptr %0, align 8
  %20 = tail call ptr %16(ptr noundef %18, ptr noundef %19, i64 noundef %spec.select.i) #19
  %.not22.i = icmp eq ptr %20, null
  br i1 %.not22.i, label %21, label %22

21:                                               ; preds = %12
  store i32 1, ptr %10, align 8
  br label %dbuf_realloc.exit

22:                                               ; preds = %12
  store ptr %20, ptr %0, align 8
  store i64 %spec.select.i, ptr %6, align 8
  br label %23

23:                                               ; preds = %._crit_edge, %22
  %24 = phi ptr [ %.pre, %._crit_edge ], [ %20, %22 ]
  %25 = getelementptr i8, ptr %24, i64 %1
  tail call void @llvm.memcpy.p0.p0.i64(ptr align 1 %25, ptr align 1 %2, i64 %3, i1 false)
  %26 = getelementptr inbounds i8, ptr %0, i64 8
  %27 = load i64, ptr %26, align 8
  %28 = icmp ugt i64 %5, %27
  br i1 %28, label %29, label %dbuf_realloc.exit

29:                                               ; preds = %23
  store i64 %5, ptr %26, align 8
  br label %dbuf_realloc.exit

dbuf_realloc.exit:                                ; preds = %21, %9, %23, %29
  %.0 = phi i32 [ 0, %29 ], [ 0, %23 ], [ -1, %9 ], [ -1, %21 ]
  ret i32 %.0
}